target datalayout = "e-m:e-p270:32:32-p271:32:32-p272:64:64-i64:64-i128:128-f80:128-n8:16:32:64-S128"
target triple = "x86_64-pc-linux-gnu"

%struct.ForEachState = type { ptr, i32 }
%struct.List = type { i32, i32, i32, ptr, [0 x %union.ListCell] }
%union.ListCell = type { ptr }
%struct.Plan = type { i32, i32, double, double, double, i32, i8, i8, i8, i32, ptr, ptr, ptr, ptr, ptr, ptr, ptr }
%struct.Node = type { i32 }
%struct.Append = type { %struct.Plan, ptr, ptr, i32, i32, i32 }
%struct.IndexScan = type { %struct.Scan, i32, ptr, ptr, ptr, ptr, ptr, i32 }
%struct.Scan = type { %struct.Plan, i32 }
%struct.IndexOnlyScan = type { %struct.Scan, i32, ptr, ptr, ptr, ptr, i32 }
%struct.SubqueryScan = type { %struct.Scan, ptr, i32 }
%struct.CustomScan = type { %struct.Scan, i32, ptr, ptr, ptr, ptr, ptr, ptr }

; Function Attrs: nounwind uwtable
define dso_local zeroext i1 @ExecSupportsBackwardScan(ptr noundef %0) #0 {
  %2 = alloca i1, align 1
  %3 = alloca ptr, align 8
  %4 = alloca ptr, align 8
  %5 = alloca i32, align 4
  %6 = alloca %struct.ForEachState, align 8
  store ptr %0, ptr %3, align 8
  %7 = load ptr, ptr %3, align 8
  %8 = icmp eq ptr %7, null
  br i1 %8, label %9, label %10

9:                                                ; preds = %1
  store i1 false, ptr %2, align 1
  br label %117

10:                                               ; preds = %1
  %11 = load ptr, ptr %3, align 8
  %12 = getelementptr inbounds nuw %struct.Plan, ptr %11, i32 0, i32 6
  %13 = load i8, ptr %12, align 4, !range !7, !noundef !8
  %14 = trunc i8 %13 to i1
  br i1 %14, label %15, label %16

15:                                               ; preds = %10
  store i1 false, ptr %2, align 1
  br label %117

16:                                               ; preds = %10
  %17 = load ptr, ptr %3, align 8
  %18 = getelementptr inbounds nuw %struct.Node, ptr %17, i32 0, i32 0
  %19 = load i32, ptr %18, align 4
  switch i32 %19, label %116 [
    i32 330, label %20
    i32 333, label %31
    i32 339, label %84
    i32 367, label %85
    i32 340, label %86
    i32 341, label %91
    i32 346, label %96
    i32 354, label %101
    i32 338, label %109
    i32 344, label %109
    i32 345, label %109
    i32 347, label %109
    i32 348, label %109
    i32 350, label %109
    i32 359, label %109
    i32 361, label %109
    i32 362, label %110
    i32 371, label %111
    i32 372, label %111
  ]

20:                                               ; preds = %16
  %21 = load ptr, ptr %3, align 8
  %22 = getelementptr inbounds nuw %struct.Plan, ptr %21, i32 0, i32 12
  %23 = load ptr, ptr %22, align 8
  %24 = icmp ne ptr %23, null
  br i1 %24, label %25, label %30

25:                                               ; preds = %20
  %26 = load ptr, ptr %3, align 8
  %27 = getelementptr inbounds nuw %struct.Plan, ptr %26, i32 0, i32 12
  %28 = load ptr, ptr %27, align 8
  %29 = call zeroext i1 @ExecSupportsBackwardScan(ptr noundef %28)
  store i1 %29, ptr %2, align 1
  br label %117

30:                                               ; preds = %20
  store i1 false, ptr %2, align 1
  br label %117

31:                                               ; preds = %16
  call void @llvm.lifetime.start.p0(i64 8, ptr %4) #6
  %32 = load ptr, ptr %3, align 8
  %33 = getelementptr inbounds nuw %struct.Append, ptr %32, i32 0, i32 3
  %34 = load i32, ptr %33, align 8
  %35 = icmp sgt i32 %34, 0
  br i1 %35, label %36, label %37

36:                                               ; preds = %31
  store i1 false, ptr %2, align 1
  store i32 1, ptr %5, align 4
  br label %83

37:                                               ; preds = %31
  call void @llvm.lifetime.start.p0(i64 16, ptr %6) #6
  %38 = getelementptr inbounds nuw %struct.ForEachState, ptr %6, i32 0, i32 0
  %39 = load ptr, ptr %3, align 8
  %40 = getelementptr inbounds nuw %struct.Append, ptr %39, i32 0, i32 2
  %41 = load ptr, ptr %40, align 8
  store ptr %41, ptr %38, align 8
  %42 = getelementptr inbounds nuw %struct.ForEachState, ptr %6, i32 0, i32 1
  store i32 0, ptr %42, align 8
  %43 = getelementptr i8, ptr %6, i64 12
  call void @llvm.memset.p0.i64(ptr align 4 %43, i8 0, i64 4, i1 false)
  br label %44

44:                                               ; preds = %76, %37
  %45 = getelementptr inbounds nuw %struct.ForEachState, ptr %6, i32 0, i32 0
  %46 = load ptr, ptr %45, align 8
  %47 = icmp ne ptr %46, null
  br i1 %47, label %48, label %65

48:                                               ; preds = %44
  %49 = getelementptr inbounds nuw %struct.ForEachState, ptr %6, i32 0, i32 1
  %50 = load i32, ptr %49, align 8
  %51 = getelementptr inbounds nuw %struct.ForEachState, ptr %6, i32 0, i32 0
  %52 = load ptr, ptr %51, align 8
  %53 = getelementptr inbounds nuw %struct.List, ptr %52, i32 0, i32 1
  %54 = load i32, ptr %53, align 4
  %55 = icmp slt i32 %50, %54
  br i1 %55, label %56, label %65

56:                                               ; preds = %48
  %57 = getelementptr inbounds nuw %struct.ForEachState, ptr %6, i32 0, i32 0
  %58 = load ptr, ptr %57, align 8
  %59 = getelementptr inbounds nuw %struct.List, ptr %58, i32 0, i32 3
  %60 = load ptr, ptr %59, align 8
  %61 = getelementptr inbounds nuw %struct.ForEachState, ptr %6, i32 0, i32 1
  %62 = load i32, ptr %61, align 8
  %63 = sext i32 %62 to i64
  %64 = getelementptr inbounds %union.ListCell, ptr %60, i64 %63
  store ptr %64, ptr %4, align 8
  br label %66

65:                                               ; preds = %48, %44
  store ptr null, ptr %4, align 8
  br label %66

66:                                               ; preds = %65, %56
  %67 = phi i32 [ 1, %56 ], [ 0, %65 ]
  %68 = icmp ne i32 %67, 0
  br i1 %68, label %70, label %69

69:                                               ; preds = %66
  store i32 3, ptr %5, align 4
  br label %80

70:                                               ; preds = %66
  %71 = load ptr, ptr %4, align 8
  %72 = load ptr, ptr %71, align 8
  %73 = call zeroext i1 @ExecSupportsBackwardScan(ptr noundef %72)
  br i1 %73, label %75, label %74

74:                                               ; preds = %70
  store i1 false, ptr %2, align 1
  store i32 1, ptr %5, align 4
  br label %80

75:                                               ; preds = %70
  br label %76

76:                                               ; preds = %75
  %77 = getelementptr inbounds nuw %struct.ForEachState, ptr %6, i32 0, i32 1
  %78 = load i32, ptr %77, align 8
  %79 = add i32 %78, 1
  store i32 %79, ptr %77, align 8
  br label %44, !llvm.loop !9

80:                                               ; preds = %74, %69
  call void @llvm.lifetime.end.p0(i64 16, ptr %6) #6
  %81 = load i32, ptr %5, align 4
  switch i32 %81, label %83 [
    i32 3, label %82
  ]

82:                                               ; preds = %80
  store i1 true, ptr %2, align 1
  store i32 1, ptr %5, align 4
  br label %83

83:                                               ; preds = %82, %80, %36
  call void @llvm.lifetime.end.p0(i64 8, ptr %4) #6
  br label %117

84:                                               ; preds = %16
  store i1 false, ptr %2, align 1
  br label %117

85:                                               ; preds = %16
  store i1 false, ptr %2, align 1
  br label %117

86:                                               ; preds = %16
  %87 = load ptr, ptr %3, align 8
  %88 = getelementptr inbounds nuw %struct.IndexScan, ptr %87, i32 0, i32 1
  %89 = load i32, ptr %88, align 8
  %90 = call zeroext i1 @IndexSupportsBackwardScan(i32 noundef %89)
  store i1 %90, ptr %2, align 1
  br label %117

91:                                               ; preds = %16
  %92 = load ptr, ptr %3, align 8
  %93 = getelementptr inbounds nuw %struct.IndexOnlyScan, ptr %92, i32 0, i32 1
  %94 = load i32, ptr %93, align 8
  %95 = call zeroext i1 @IndexSupportsBackwardScan(i32 noundef %94)
  store i1 %95, ptr %2, align 1
  br label %117

96:                                               ; preds = %16
  %97 = load ptr, ptr %3, align 8
  %98 = getelementptr inbounds nuw %struct.SubqueryScan, ptr %97, i32 0, i32 1
  %99 = load ptr, ptr %98, align 8
  %100 = call zeroext i1 @ExecSupportsBackwardScan(ptr noundef %99)
  store i1 %100, ptr %2, align 1
  br label %117

101:                                              ; preds = %16
  %102 = load ptr, ptr %3, align 8
  %103 = getelementptr inbounds nuw %struct.CustomScan, ptr %102, i32 0, i32 1
  %104 = load i32, ptr %103, align 8
  %105 = and i32 %104, 1
  %106 = icmp ne i32 %105, 0
  br i1 %106, label %107, label %108

107:                                              ; preds = %101
  store i1 true, ptr %2, align 1
  br label %117

108:                                              ; preds = %101
  store i1 false, ptr %2, align 1
  br label %117

109:                                              ; preds = %16, %16, %16, %16, %16, %16, %16, %16
  store i1 true, ptr %2, align 1
  br label %117

110:                                              ; preds = %16
  store i1 false, ptr %2, align 1
  br label %117

111:                                              ; preds = %16, %16
  %112 = load ptr, ptr %3, align 8
  %113 = getelementptr inbounds nuw %struct.Plan, ptr %112, i32 0, i32 12
  %114 = load ptr, ptr %113, align 8
  %115 = call zeroext i1 @ExecSupportsBackwardScan(ptr noundef %114)
  store i1 %115, ptr %2, align 1
  br label %117

116:                                              ; preds = %16
  store i1 false, ptr %2, align 1
  br label %117

117:                                              ; preds = %116, %111, %110, %109, %108, %107, %96, %91, %86, %85, %84, %83, %30, %25, %15, %9
  %118 = load i1, ptr %2, align 1
  ret i1 %118
}