; Function Attrs: nounwind uwtable
define dso_local zeroext i1 @ExecSupportsBackwardScan(ptr noundef readonly captures(address_is_null) %0) local_unnamed_addr #0 {
  %2 = icmp eq ptr %0, null
  br i1 %2, label %.thread, label %.lr.ph

.lr.ph:                                           ; preds = %1, %tailrecurse.backedge
  %.tr36 = phi ptr [ %.tr.be, %tailrecurse.backedge ], [ %0, %1 ]
  %3 = getelementptr inbounds nuw i8, ptr %.tr36, i64 36
  %4 = load i8, ptr %3, align 4, !range !4, !noundef !5
  %5 = trunc nuw i8 %4 to i1
  br i1 %5, label %.thread, label %6

6:                                                ; preds = %.lr.ph
  %7 = load i32, ptr %.tr36, align 4
  switch i32 %7, label %.thread [
    i32 330, label %8
    i32 333, label %11
    i32 372, label %tailrecurse.backedge.sink.split
    i32 371, label %tailrecurse.backedge.sink.split
    i32 340, label %30
    i32 341, label %34
    i32 346, label %38
    i32 354, label %42
    i32 338, label %.thread.loopexit88
    i32 344, label %.thread.loopexit88
    i32 345, label %.thread.loopexit88
    i32 347, label %.thread.loopexit88
    i32 348, label %.thread.loopexit88
    i32 350, label %.thread.loopexit88
    i32 359, label %.thread.loopexit88
    i32 361, label %.thread.loopexit88
  ]

8:                                                ; preds = %6
  %9 = getelementptr inbounds nuw i8, ptr %.tr36, i64 64
  %10 = load ptr, ptr %9, align 8
  %.not25 = icmp eq ptr %10, null
  br i1 %.not25, label %.thread, label %tailrecurse.backedge

11:                                               ; preds = %6
  %12 = getelementptr inbounds nuw i8, ptr %.tr36, i64 120
  %13 = load i32, ptr %12, align 8
  %14 = icmp sgt i32 %13, 0
  br i1 %14, label %.thread, label %15

15:                                               ; preds = %11
  %16 = getelementptr inbounds nuw i8, ptr %.tr36, i64 112
  %17 = load ptr, ptr %16, align 8
  %18 = getelementptr inbounds nuw i8, ptr %17, i64 4
  %.not23 = icmp eq ptr %17, null
  br i1 %.not23, label %.thread, label %.lr.ph57

.lr.ph57:                                         ; preds = %15
  %19 = getelementptr inbounds nuw i8, ptr %17, i64 16
  %20 = load i32, ptr %18, align 4
  %21 = icmp sgt i32 %20, 0
  br i1 %21, label %.lr.ph66, label %.thread

22:                                               ; preds = %.lr.ph66
  %indvars.iv.next = add nuw nsw i64 %indvars.iv, 1
  %23 = load i32, ptr %18, align 4
  %24 = sext i32 %23 to i64
  %25 = icmp slt i64 %indvars.iv.next, %24
  br i1 %25, label %.lr.ph66, label %.thread

.lr.ph66:                                         ; preds = %.lr.ph57, %22
  %indvars.iv = phi i64 [ %indvars.iv.next, %22 ], [ 0, %.lr.ph57 ]
  %26 = load ptr, ptr %19, align 8
  %27 = getelementptr inbounds nuw %union.ListCell, ptr %26, i64 %indvars.iv
  %28 = load ptr, ptr %27, align 8
  %29 = tail call zeroext i1 @ExecSupportsBackwardScan(ptr noundef %28)
  br i1 %29, label %22, label %.thread

30:                                               ; preds = %6
  %31 = getelementptr inbounds nuw i8, ptr %.tr36, i64 112
  %32 = load i32, ptr %31, align 8
  %33 = tail call fastcc zeroext i1 @IndexSupportsBackwardScan(i32 noundef %32)
  br label %.thread

34:                                               ; preds = %6
  %35 = getelementptr inbounds nuw i8, ptr %.tr36, i64 112
  %36 = load i32, ptr %35, align 8
  %37 = tail call fastcc zeroext i1 @IndexSupportsBackwardScan(i32 noundef %36)
  br label %.thread

38:                                               ; preds = %6
  br label %tailrecurse.backedge.sink.split

tailrecurse.backedge.sink.split:                  ; preds = %6, %6, %38
  %.sink81 = phi i64 [ 112, %38 ], [ 64, %6 ], [ 64, %6 ]
  %39 = getelementptr inbounds nuw i8, ptr %.tr36, i64 %.sink81
  %40 = load ptr, ptr %39, align 8
  br label %tailrecurse.backedge

tailrecurse.backedge:                             ; preds = %tailrecurse.backedge.sink.split, %8
  %.tr.be = phi ptr [ %10, %8 ], [ %40, %tailrecurse.backedge.sink.split ]
  %41 = icmp eq ptr %.tr.be, null
  br i1 %41, label %.thread, label %.lr.ph

42:                                               ; preds = %6
  %43 = getelementptr inbounds nuw i8, ptr %.tr36, i64 112
  %44 = load i32, ptr %43, align 8
  %45 = and i32 %44, 1
  %.not = icmp ne i32 %45, 0
  br label %.thread

.thread.loopexit88:                               ; preds = %6, %6, %6, %6, %6, %6, %6, %6
  br label %.thread

.thread:                                          ; preds = %.lr.ph66, %22, %tailrecurse.backedge, %.lr.ph, %8, %6, %.thread.loopexit88, %1, %15, %.lr.ph57, %42, %11, %34, %30
  %.0 = phi i1 [ %37, %34 ], [ %33, %30 ], [ false, %11 ], [ %.not, %42 ], [ true, %15 ], [ true, %.lr.ph57 ], [ false, %1 ], [ true, %.thread.loopexit88 ], [ false, %6 ], [ false, %8 ], [ false, %.lr.ph ], [ false, %tailrecurse.backedge ], [ %29, %22 ], [ %29, %.lr.ph66 ]
  ret i1 %.0
}